target datalayout = "e-m:e-p270:32:32-p271:32:32-p272:64:64-i64:64-i128:128-f80:128-n8:16:32:64-S128"
target triple = "x86_64-unknown-linux-gnu"

%"class.hermes::vm::HermesValue" = type { i64 }
%"class.facebook::hermes::HermesRuntimeImpl" = type <{ %"class.facebook::hermes::HermesRuntime", %"class.facebook::jsi::Instrumentation", %"class.facebook::hermes::HermesRuntimeImpl::ManagedValues", %"class.facebook::hermes::HermesRuntimeImpl::ManagedValues.1", %"class.std::shared_ptr", ptr, %"class.std::unique_ptr", i32, %"struct.hermes::hbc::CompileFlags", i8, [7 x i8] }>
%"class.facebook::hermes::HermesRuntime" = type { %"class.facebook::jsi::Runtime" }
%"class.facebook::jsi::Runtime" = type { ptr }
%"class.facebook::jsi::Instrumentation" = type { ptr }
%"class.facebook::hermes::HermesRuntimeImpl::ManagedValues" = type { %"class.hermes::ManagedChunkedList" }
%"class.hermes::ManagedChunkedList" = type { ptr, i64, %"class.hermes::ExponentialMovingAverage", ptr, double }
%"class.hermes::ExponentialMovingAverage" = type { double, double }
%"class.facebook::hermes::HermesRuntimeImpl::ManagedValues.1" = type { %"class.hermes::ManagedChunkedList.2" }
%"class.hermes::ManagedChunkedList.2" = type { ptr, i64, %"class.hermes::ExponentialMovingAverage", ptr, double }
%"class.std::shared_ptr" = type { %"class.std::__shared_ptr" }
%"class.std::__shared_ptr" = type { ptr, %"class.std::__shared_count" }
%"class.std::__shared_count" = type { ptr }
%"class.std::unique_ptr" = type { %"struct.std::__uniq_ptr_data" }
%"struct.std::__uniq_ptr_data" = type { %"class.std::__uniq_ptr_impl" }
%"class.std::__uniq_ptr_impl" = type { %"class.std::tuple" }
%"class.std::tuple" = type { %"struct.std::_Tuple_impl" }
%"struct.std::_Tuple_impl" = type { %"struct.std::_Head_base.4" }
%"struct.std::_Head_base.4" = type { ptr }
%"struct.hermes::hbc::CompileFlags" = type { i8, i8, i8, i32, i32, i8, %"class.llvh::Optional", i8, i8, i8, i8, i8, i8, i32 }
%"class.llvh::Optional" = type { %"struct.llvh::optional_detail::OptionalStorage" }
%"struct.llvh::optional_detail::OptionalStorage" = type { %"struct.llvh::AlignedCharArrayUnion", i8 }
%"struct.llvh::AlignedCharArrayUnion" = type { %"struct.llvh::AlignedCharArray" }
%"struct.llvh::AlignedCharArray" = type { [1 x i8] }
%"class.hermes::vm::CallResult" = type { i32, %"class.hermes::vm::HermesValue" }
%"class.llvh::ArrayRef.406" = type { ptr, i64 }

; Function Attrs: mustprogress nounwind uwtable
define linkonce_odr hidden noundef nonnull align 8 dereferenceable(8) ptr @_ZNK6hermes2vm10CallResultINS0_11HermesValueELNS0_6detail20CallResultSpecializeE2EE8getValueEv(ptr noundef nonnull align 8 dereferenceable(16) %this) #1 comdat align 2 {
entry:
  %this.addr = alloca ptr, align 8
  store ptr %this, ptr %this.addr, align 8
  %this1 = load ptr, ptr %this.addr, align 8
  %storage_ = getelementptr inbounds %"class.hermes::vm::CallResult", ptr %this1, i32 0, i32 1
  ret ptr %storage_
}

; Function Attrs: mustprogress nounwind uwtable
define linkonce_odr hidden void @_ZN4llvh8ArrayRefIcEC2EPKcm(ptr noundef nonnull align 8 dereferenceable(16) %this, ptr noundef %data, i64 noundef %length) unnamed_addr #1 comdat align 2 {
entry:
  %this.addr = alloca ptr, align 8
  %data.addr = alloca ptr, align 8
  %length.addr = alloca i64, align 8
  store ptr %this, ptr %this.addr, align 8
  store ptr %data, ptr %data.addr, align 8
  store i64 %length, ptr %length.addr, align 8
  %this1 = load ptr, ptr %this.addr, align 8
  %Data = getelementptr inbounds %"class.llvh::ArrayRef.406", ptr %this1, i32 0, i32 0
  %0 = load ptr, ptr %data.addr, align 8
  store ptr %0, ptr %Data, align 8
  %Length = getelementptr inbounds %"class.llvh::ArrayRef.406", ptr %this1, i32 0, i32 1
  %1 = load i64, ptr %length.addr, align 8
  store i64 %1, ptr %Length, align 8
  ret void
}

; Function Attrs: mustprogress uwtable
define linkonce_odr hidden noundef nonnull align 8 dereferenceable(8) ptr @_ZNK6hermes2vm10CallResultINS0_11HermesValueELNS0_6detail20CallResultSpecializeE2EEdeEv(ptr noundef nonnull align 8 dereferenceable(16) %this) #0 comdat align 2 {
entry:
  %this.addr = alloca ptr, align 8
  store ptr %this, ptr %this.addr, align 8
  %this1 = load ptr, ptr %this.addr, align 8
  %call = call noundef nonnull align 8 dereferenceable(8) ptr @_ZNK6hermes2vm10CallResultINS0_11HermesValueELNS0_6detail20CallResultSpecializeE2EE8getValueEv(ptr noundef nonnull align 8 dereferenceable(16) %this1)
  ret ptr %call
}

; Function Attrs: mustprogress uwtable
define hidden void @_ZN8facebook6hermes17HermesRuntimeImpl11checkStatusEN6hermes2vm15ExecutionStatusE(ptr noundef nonnull align 8 dereferenceable(184) %this, i32 noundef %status) #0 align 2 {
entry:
  %this.addr = alloca ptr, align 8
  %status.addr = alloca i32, align 4
  store ptr %this, ptr %this.addr, align 8
  store i32 %status, ptr %status.addr, align 4
  %this1 = load ptr, ptr %this.addr, align 8
  %0 = load i32, ptr %status.addr, align 4
  %cmp = icmp ne i32 %0, 0
  br i1 %cmp, label %if.then, label %if.end

if.then:                                          ; preds = %entry
  ret void

if.end:                                           ; preds = %entry
  call void @_ZN8facebook6hermes17HermesRuntimeImpl17throwPendingErrorEv(ptr noundef nonnull align 8 dereferenceable(184) %this1) #21
  unreachable
}

; Function Attrs: mustprogress nounwind uwtable
define linkonce_odr hidden noundef i32 @_ZNK6hermes2vm10CallResultINS0_11HermesValueELNS0_6detail20CallResultSpecializeE2EE9getStatusEv(ptr noundef nonnull align 8 dereferenceable(16) %this) #1 comdat align 2 {
entry:
  %this.addr = alloca ptr, align 8
  store ptr %this, ptr %this.addr, align 8
  %this1 = load ptr, ptr %this.addr, align 8
  %status_ = getelementptr inbounds %"class.hermes::vm::CallResult", ptr %this1, i32 0, i32 0
  %0 = load i32, ptr %status_, align 8
  ret i32 %0
}

; Function Attrs: mustprogress uwtable
define linkonce_odr hidden { ptr, i64 } @_ZN4llvh12makeArrayRefIcEENS_8ArrayRefIT_EEPKS2_m(ptr noundef %data, i64 noundef %length) #0 comdat {
entry:
  %retval = alloca %"class.llvh::ArrayRef.406", align 8
  %data.addr = alloca ptr, align 8
  %length.addr = alloca i64, align 8
  store ptr %data, ptr %data.addr, align 8
  store i64 %length, ptr %length.addr, align 8
  %0 = load ptr, ptr %data.addr, align 8
  %1 = load i64, ptr %length.addr, align 8
  call void @_ZN4llvh8ArrayRefIcEC2EPKcm(ptr noundef nonnull align 8 dereferenceable(16) %retval, ptr noundef %0, i64 noundef %1)
  %2 = load { ptr, i64 }, ptr %retval, align 8
  ret { ptr, i64 } %2
}

; Function Attrs: mustprogress uwtable
define hidden i64 @_ZN8facebook6hermes17HermesRuntimeImpl17stringHVFromAsciiEPKcm(ptr noundef nonnull align 8 dereferenceable(184) %this, ptr noundef %str, i64 noundef %length) #0 align 2 {
entry:
  %retval = alloca %"class.hermes::vm::HermesValue", align 8
  %this.addr = alloca ptr, align 8
  %str.addr = alloca ptr, align 8
  %length.addr = alloca i64, align 8
  %strRes = alloca %"class.hermes::vm::CallResult", align 8
  %agg.tmp = alloca %"class.llvh::ArrayRef.406", align 8
  store ptr %this, ptr %this.addr, align 8
  store ptr %str, ptr %str.addr, align 8
  store i64 %length, ptr %length.addr, align 8
  %this1 = load ptr, ptr %this.addr, align 8
  %runtime_ = getelementptr inbounds %"class.facebook::hermes::HermesRuntimeImpl", ptr %this1, i32 0, i32 5
  %0 = load ptr, ptr %runtime_, align 8
  %1 = load ptr, ptr %str.addr, align 8
  %2 = load i64, ptr %length.addr, align 8
  %call = call { ptr, i64 } @_ZN4llvh12makeArrayRefIcEENS_8ArrayRefIT_EEPKS2_m(ptr noundef %1, i64 noundef %2)
  %3 = getelementptr inbounds { ptr, i64 }, ptr %agg.tmp, i32 0, i32 0
  %4 = extractvalue { ptr, i64 } %call, 0
  store ptr %4, ptr %3, align 8
  %5 = getelementptr inbounds { ptr, i64 }, ptr %agg.tmp, i32 0, i32 1
  %6 = extractvalue { ptr, i64 } %call, 1
  store i64 %6, ptr %5, align 8
  %7 = getelementptr inbounds { ptr, i64 }, ptr %agg.tmp, i32 0, i32 0
  %8 = load ptr, ptr %7, align 8
  %9 = getelementptr inbounds { ptr, i64 }, ptr %agg.tmp, i32 0, i32 1
  %10 = load i64, ptr %9, align 8
  %call2 = call { i32, i64 } @_ZN6hermes2vm15StringPrimitive15createEfficientERNS0_7RuntimeEN4llvh8ArrayRefIcEE(ptr noundef nonnull align 8 dereferenceable(9832) %0, ptr %8, i64 %10)
  %11 = getelementptr inbounds { i32, i64 }, ptr %strRes, i32 0, i32 0
  %12 = extractvalue { i32, i64 } %call2, 0
  store i32 %12, ptr %11, align 8
  %13 = getelementptr inbounds { i32, i64 }, ptr %strRes, i32 0, i32 1
  %14 = extractvalue { i32, i64 } %call2, 1
  store i64 %14, ptr %13, align 8
  %call3 = call noundef i32 @_ZNK6hermes2vm10CallResultINS0_11HermesValueELNS0_6detail20CallResultSpecializeE2EE9getStatusEv(ptr noundef nonnull align 8 dereferenceable(16) %strRes)
  call void @_ZN8facebook6hermes17HermesRuntimeImpl11checkStatusEN6hermes2vm15ExecutionStatusE(ptr noundef nonnull align 8 dereferenceable(184) %this1, i32 noundef %call3)
  %call4 = call noundef nonnull align 8 dereferenceable(8) ptr @_ZNK6hermes2vm10CallResultINS0_11HermesValueELNS0_6detail20CallResultSpecializeE2EEdeEv(ptr noundef nonnull align 8 dereferenceable(16) %strRes)
  call void @llvm.memcpy.p0.p0.i64(ptr align 8 %retval, ptr align 8 %call4, i64 8, i1 false)
  %coerce.dive = getelementptr inbounds %"class.hermes::vm::HermesValue", ptr %retval, i32 0, i32 0
  %15 = load i64, ptr %coerce.dive, align 8
  ret i64 %15
}