; Function Attrs: mustprogress uwtable
define hidden i64 @_ZN8facebook6hermes17HermesRuntimeImpl17stringHVFromAsciiEPKcm(ptr noundef nonnull align 8 dereferenceable(184) %this, ptr noundef %str, i64 noundef %length) local_unnamed_addr #0 align 2 {
entry:
  %runtime_ = getelementptr inbounds i8, ptr %this, i64 128
  %0 = load ptr, ptr %runtime_, align 8
  %call2 = tail call { i32, i64 } @_ZN6hermes2vm15StringPrimitive15createEfficientERNS0_7RuntimeEN4llvh8ArrayRefIcEE(ptr noundef nonnull align 8 dereferenceable(9832) %0, ptr %str, i64 %length)
  %1 = extractvalue { i32, i64 } %call2, 0
  %cmp.not.i = icmp eq i32 %1, 0
  br i1 %cmp.not.i, label %if.end.i, label %_ZN8facebook6hermes17HermesRuntimeImpl11checkStatusEN6hermes2vm15ExecutionStatusE.exit

if.end.i:                                         ; preds = %entry
  tail call void @_ZN8facebook6hermes17HermesRuntimeImpl17throwPendingErrorEv(ptr noundef nonnull align 8 dereferenceable(184) %this) #39
  unreachable

_ZN8facebook6hermes17HermesRuntimeImpl11checkStatusEN6hermes2vm15ExecutionStatusE.exit: ; preds = %entry
  %2 = extractvalue { i32, i64 } %call2, 1
  ret i64 %2
}